Certificate:
    Data:
        Version: 3 (0x2)
        Serial Number: 10891603349543332922 (0x9726bf8a4bfc2c3a)
    Signature Algorithm: sha256WithRSAEncryption
        Issuer: C=MX, ST=Mexico, O=Mexico, OU=Mexico, CN=Mexico
        Validity
            Not Before: Apr 19 21:45:40 2016 GMT
            Not After : Apr 19 21:45:40 2017 GMT
        Subject: C=MX, ST=mexico, L=Mexico, O=Mexico, OU=Mexico, CN=mexico
        Subject Public Key Info:
            Public Key Algorithm: rsaEncryption
                Public-Key: (2048 bit)
                Modulus:
                    00:a3:9a:e1:ad:b7:fb:bc:90:c5:58:67:b6:eb:03:
                    b0:71:0c:f7:5e:4d:c3:c2:64:fc:c5:bc:44:c8:32:
                    23:04:e0:a6:a3:70:36:42:62:03:20:7f:cb:fc:66:
                    58:08:93:bb:44:f9:24:06:4b:82:05:5a:a6:56:81:
                    7b:d3:eb:0b:1c:9c:4d:e4:1f:12:da:16:75:ef:7a:
                    5a:da:d4:8b:31:43:3c:57:50:2a:29:3c:01:d4:21:
                    54:b0:97:0b:ca:8a:e4:ce:d1:14:07:44:48:2b:36:
                    33:04:9f:10:73:00:c2:2c:91:ce:5a:17:e5:47:d1:
                    4b:80:99:41:61:23:b9:ee:14:da:a7:ae:2a:30:7c:
                    82:90:d3:2e:86:0a:64:fe:4e:79:3a:5a:8a:63:76:
                    9d:f1:a3:65:5a:f6:07:11:58:89:ae:5f:39:61:0a:
                    86:20:79:a7:d0:96:95:f4:b2:d0:80:de:f7:68:1c:
                    0d:a0:d5:53:30:f6:52:d4:60:98:e9:ae:85:b3:c1:
                    e2:3f:f3:03:cc:68:59:f4:e6:2a:d3:59:82:a7:96:
                    9c:96:13:ca:c8:0d:8f:ca:78:a6:d0:f8:f6:5c:13:
                    c3:28:e1:b2:b0:9e:36:01:a9:9d:4e:ff:8a:4b:23:
                    13:29:63:a6:70:2b:29:12:67:0c:10:e7:55:d9:f3:
                    4d:ad
                Exponent: 65537 (0x10001)
        X509v3 extensions:
            X509v3 Basic Constraints: 
                CA:FALSE
            Netscape Comment: 
                OpenSSL Generated Certificate
            X509v3 Subject Key Identifier: 
                EF:55:6F:B4:4D:88:32:2A:9B:59:18:34:9D:EE:13:4F:E1:CA:3C:45
            X509v3 Authority Key Identifier: 
                keyid:5D:78:2C:16:F9:A4:4E:A4:80:56:7B:B8:99:CD:C9:9C:D1:1C:7B:6E

    Signature Algorithm: sha256WithRSAEncryption
         21:11:7d:91:2b:f0:16:57:50:06:64:35:df:9b:e3:80:be:75:
         04:86:0f:78:d4:34:d8:21:a5:25:a0:84:3b:ba:7b:cc:70:34:
         ca:e1:c5:ad:a6:ce:9e:49:0b:52:10:23:e1:e3:6f:cc:94:66:
         27:c0:a3:44:89:f9:76:46:1d:ce:10:c4:6c:b2:76:e1:4c:ee:
         31:72:7b:12:f4:11:a5:b1:ee:f4:42:3f:b2:a4:7c:ba:51:44:
         2f:57:a9:66:0d:ae:14:c6:be:4e:ca:5c:78:a1:a4:5e:e7:b9:
         b9:73:4a:27:e6:84:9d:d3:7d:74:2a:e8:21:d5:ed:fd:01:46:
         b1:98:9b:71:80:12:a0:b8:26:d6:22:a5:44:c2:ed:22:3c:36:
         c2:09:f8:7e:22:0a:0d:c2:f7:07:36:82:0f:26:e3:a8:79:59:
         d0:26:1c:0b:22:47:f3:42:8a:ef:9c:f6:31:14:f5:1f:17:d7:
         e0:5d:31:f4:95:88:92:df:2d:34:db:3d:00:f5:db:ed:63:b7:
         09:5f:1e:c5:88:0a:58:36:98:59:a2:29:54:61:b2:f7:a6:81:
         35:da:00:a5:de:42:4f:5c:f9:82:d0:3c:43:af:74:92:29:6e:
         78:2f:77:15:16:06:43:ff:f0:30:a3:43:d2:9c:fe:3a:da:4d:
         81:89:27:3c
-----BEGIN CERTIFICATE-----
MIIDsTCCApmgAwIBAgIJAJcmv4pL/Cw6MA0GCSqGSIb3DQEBCwUAMFExCzAJBgNV
BAYTAk1YMQ8wDQYDVQQIDAZNZXhpY28xDzANBgNVBAoMBk1leGljbzEPMA0GA1UE
CwwGTWV4aWNvMQ8wDQYDVQQDDAZNZXhpY28wHhcNMTYwNDE5MjE0NTQwWhcNMTcw
NDE5MjE0NTQwWjBiMQswCQYDVQQGEwJNWDEPMA0GA1UECAwGbWV4aWNvMQ8wDQYD
VQQHDAZNZXhpY28xDzANBgNVBAoMBk1leGljbzEPMA0GA1UECwwGTWV4aWNvMQ8w
DQYDVQQDDAZtZXhpY28wggEiMA0GCSqGSIb3DQEBAQUAA4IBDwAwggEKAoIBAQCj
muGtt/u8kMVYZ7brA7BxDPdeTcPCZPzFvETIMiME4KajcDZCYgMgf8v8ZlgIk7tE
+SQGS4IFWqZWgXvT6wscnE3kHxLaFnXvelra1IsxQzxXUCopPAHUIVSwlwvKiuTO
0RQHREgrNjMEnxBzAMIskc5aF+VH0UuAmUFhI7nuFNqnriowfIKQ0y6GCmT+Tnk6
Wopjdp3xo2Va9gcRWImuXzlhCoYgeafQlpX0stCA3vdoHA2g1VMw9lLUYJjproWz
weI/8wPMaFn05irTWYKnlpyWE8rIDY/KeKbQ+PZcE8Mo4bKwnjYBqZ1O/4pLIxMp
Y6ZwKykSZwwQ51XZ802tAgMBAAGjezB5MAkGA1UdEwQCMAAwLAYJYIZIAYb4QgEN
BB8WHU9wZW5TU0wgR2VuZXJhdGVkIENlcnRpZmljYXRlMB0GA1UdDgQWBBTvVW+0
TYgyKptZGDSd7hNP4co8RTAfBgNVHSMEGDAWgBRdeCwW+aROpIBWe7iZzcmc0Rx7
bjANBgkqhkiG9w0BAQsFAAOCAQEAIRF9kSvwFldQBmQ135vjgL51BIYPeNQ02CGl
JaCEO7p7zHA0yuHFrabOnkkLUhAj4eNvzJRmJ8CjRIn5dkYdzhDEbLJ24UzuMXJ7
EvQRpbHu9EI/sqR8ulFEL1epZg2uFMa+TspceKGkXue5uXNKJ+aEndN9dCroIdXt
/QFGsZibcYASoLgm1iKlRMLtIjw2wgn4fiIKDcL3BzaCDybjqHlZ0CYcCyJH80KK
75z2MRT1HxfX4F0x9JWIkt8tNNs9APXb7WO3CV8exYgKWDaYWaIpVGGy96aBNdoA
pd5CT1z5gtA8Q690kilueC93FRYGQ//wMKND0pz+OtpNgYknPA==
-----END CERTIFICATE-----
