Certificate:
    Data:
        Version: 3 (0x2)
        Serial Number: 10891603349543332921 (0x9726bf8a4bfc2c39)
    Signature Algorithm: sha256WithRSAEncryption
        Issuer: C=MX, ST=Mexico, O=Mexico, OU=Mexico, CN=Mexico
        Validity
            Not Before: Apr 19 21:43:39 2016 GMT
            Not After : Apr 19 21:43:39 2019 GMT
        Subject: C=MX, ST=Mexico, O=Mexico, OU=Mexico, CN=Mexico
        Subject Public Key Info:
            Public Key Algorithm: rsaEncryption
                Public-Key: (2048 bit)
                Modulus:
                    00:ca:1c:a1:0f:04:63:15:6a:30:cc:ea:d5:da:55:
                    01:42:fe:08:dc:36:f3:96:fc:c5:30:92:87:b3:f1:
                    bd:e6:56:f0:22:0d:e9:e0:24:d6:42:99:71:00:92:
                    8a:a6:f2:37:e0:f2:59:2b:e9:de:99:46:e1:b9:0c:
                    cd:29:4a:fa:5b:84:1a:05:ed:51:5a:3b:95:5f:18:
                    f0:e0:d0:fc:8e:5b:24:64:13:8a:16:29:dd:98:e7:
                    c5:98:e7:a5:27:d7:72:64:8c:90:bd:e1:a0:40:8a:
                    61:8a:ef:04:07:cb:8d:ad:b6:eb:b7:04:57:db:10:
                    64:13:86:ed:1e:e6:f6:3e:c3:f7:af:40:4e:10:45:
                    95:8f:76:71:a7:20:ff:52:93:0e:3b:c3:f0:29:ab:
                    bd:2f:82:43:ee:f6:74:f2:37:ec:40:bb:81:c3:39:
                    49:62:b8:4e:65:53:a0:af:8a:69:aa:2f:5a:9f:4f:
                    b6:36:19:7a:f7:5c:0f:5f:e5:2e:e6:52:ae:0f:4e:
                    d0:ea:6f:90:ac:de:3d:28:e9:d8:4e:ed:f2:2b:78:
                    69:be:2d:36:6e:ec:59:17:d9:fc:59:a7:64:6d:a7:
                    c3:6f:62:9e:1e:d2:25:47:d7:54:87:fe:01:67:4a:
                    0c:e1:0a:00:4c:0c:06:b9:d1:d4:2f:58:9d:6d:1f:
                    4c:37
                Exponent: 65537 (0x10001)
        X509v3 extensions:
            X509v3 Subject Key Identifier: 
                5D:78:2C:16:F9:A4:4E:A4:80:56:7B:B8:99:CD:C9:9C:D1:1C:7B:6E
            X509v3 Authority Key Identifier: 
                keyid:5D:78:2C:16:F9:A4:4E:A4:80:56:7B:B8:99:CD:C9:9C:D1:1C:7B:6E

            X509v3 Basic Constraints: 
                CA:TRUE
    Signature Algorithm: sha256WithRSAEncryption
         5e:27:cc:57:0f:eb:de:74:cc:22:89:d4:a2:d3:88:8c:b8:0b:
         ec:89:44:58:02:38:29:64:2e:ca:33:27:b3:0e:cf:b1:d4:23:
         34:bf:a0:88:86:86:f4:b6:6a:e1:92:00:79:0f:26:69:cd:04:
         dc:dd:63:45:bd:d9:0b:95:c8:dc:5f:8e:6c:22:11:ec:55:4e:
         31:5d:0d:41:a9:6e:e4:62:9f:9d:cf:e3:7b:fb:42:40:6b:01:
         fa:41:77:91:15:b4:bd:3e:6a:38:00:7c:c6:3c:0b:c1:a5:6e:
         68:f0:19:b8:8a:1b:a1:97:38:65:86:0c:c3:cd:d1:28:10:72:
         f6:af:06:8b:d2:ae:4e:04:75:8e:9c:a8:66:84:5d:80:a6:fe:
         77:be:d4:83:d8:4e:32:37:4c:cf:99:34:26:4f:20:c4:6c:3e:
         be:a2:f7:3d:5e:df:a5:cd:7e:c3:9f:be:44:65:07:7c:b6:ea:
         20:27:b8:23:d5:17:7d:19:b9:3e:64:81:a7:72:97:2f:87:01:
         5a:f5:6e:25:43:a9:62:d2:ca:13:ae:f9:22:4b:a9:67:fc:bd:
         2e:df:eb:4e:01:6b:dd:4a:61:ab:28:c8:c9:b9:97:0c:17:ce:
         b7:9f:8c:ba:ab:e6:6c:4e:10:1e:5a:a8:20:93:48:5c:c8:c7:
         3e:7c:e0:61
-----BEGIN CERTIFICATE-----
MIIDdTCCAl2gAwIBAgIJAJcmv4pL/Cw5MA0GCSqGSIb3DQEBCwUAMFExCzAJBgNV
BAYTAk1YMQ8wDQYDVQQIDAZNZXhpY28xDzANBgNVBAoMBk1leGljbzEPMA0GA1UE
CwwGTWV4aWNvMQ8wDQYDVQQDDAZNZXhpY28wHhcNMTYwNDE5MjE0MzM5WhcNMTkw
NDE5MjE0MzM5WjBRMQswCQYDVQQGEwJNWDEPMA0GA1UECAwGTWV4aWNvMQ8wDQYD
VQQKDAZNZXhpY28xDzANBgNVBAsMBk1leGljbzEPMA0GA1UEAwwGTWV4aWNvMIIB
IjANBgkqhkiG9w0BAQEFAAOCAQ8AMIIBCgKCAQEAyhyhDwRjFWowzOrV2lUBQv4I
3DbzlvzFMJKHs/G95lbwIg3p4CTWQplxAJKKpvI34PJZK+nemUbhuQzNKUr6W4Qa
Be1RWjuVXxjw4ND8jlskZBOKFindmOfFmOelJ9dyZIyQveGgQIphiu8EB8uNrbbr
twRX2xBkE4btHub2PsP3r0BOEEWVj3ZxpyD/UpMOO8PwKau9L4JD7vZ08jfsQLuB
wzlJYrhOZVOgr4ppqi9an0+2Nhl691wPX+Uu5lKuD07Q6m+QrN49KOnYTu3yK3hp
vi02buxZF9n8WadkbafDb2KeHtIlR9dUh/4BZ0oM4QoATAwGudHUL1idbR9MNwID
AQABo1AwTjAdBgNVHQ4EFgQUXXgsFvmkTqSAVnu4mc3JnNEce24wHwYDVR0jBBgw
FoAUXXgsFvmkTqSAVnu4mc3JnNEce24wDAYDVR0TBAUwAwEB/zANBgkqhkiG9w0B
AQsFAAOCAQEAXifMVw/r3nTMIonUotOIjLgL7IlEWAI4KWQuyjMnsw7PsdQjNL+g
iIaG9LZq4ZIAeQ8mac0E3N1jRb3ZC5XI3F+ObCIR7FVOMV0NQalu5GKfnc/je/tC
QGsB+kF3kRW0vT5qOAB8xjwLwaVuaPAZuIoboZc4ZYYMw83RKBBy9q8Gi9KuTgR1
jpyoZoRdgKb+d77Ug9hOMjdMz5k0Jk8gxGw+vqL3PV7fpc1+w5++RGUHfLbqICe4
I9UXfRm5PmSBp3KXL4cBWvVuJUOpYtLKE675IkupZ/y9Lt/rTgFr3UphqyjIybmX
DBfOt5+MuqvmbE4QHlqoIJNIXMjHPnzgYQ==
-----END CERTIFICATE-----
